; Function Attrs: mustprogress nofree nounwind willreturn memory(read) uwtable
define noundef i64 @_ZNK5faiss25IndexIVFAdditiveQuantizer25train_encoder_num_vectorsEv(ptr nocapture noundef nonnull readonly align 8 dereferenceable(276) %0) unnamed_addr #3 align 2 {
  %2 = getelementptr inbounds i8, ptr %0, i64 264
  %3 = load ptr, ptr %2, align 8
  %4 = getelementptr inbounds i8, ptr %3, i64 32
  %5 = load ptr, ptr %4, align 8
  %6 = load i64, ptr %5, align 8
  %7 = tail call ptr @__dynamic_cast(ptr nonnull %3, ptr nonnull @_ZTIN5faiss17AdditiveQuantizerE, ptr nonnull @_ZTIN5faiss20LocalSearchQuantizerE, i64 0) #9
  %8 = icmp eq ptr %7, null
  br i1 %8, label %.critedge, label %9

9:                                                ; preds = %1
  %10 = getelementptr inbounds i8, ptr %3, i64 24
  %11 = load i64, ptr %10, align 8
  %12 = shl i64 %11, 10
  br label %.critedge

.critedge:                                        ; preds = %9, %1
  %.pn = phi i64 [ %12, %9 ], [ 1024, %1 ]
  %.0 = shl i64 %.pn, %6
  ret i64 %.0
}